	.file	"tparallel1.c"
	.text
.Ltext0:
	.section	.rodata.str1.8,"aMS",@progbits,1
	.align 8
.LC0:
	.string	"Thread %d finished the execution of foo\n"
	.text
	.p2align 4
	.type	foo._omp_fn.3, @function
foo._omp_fn.3:
.LVL0:
.LFB17:
	.file 1 "tparallel1.c"
	.loc 1 29 13 view -0
	.cfi_startproc
	.loc 1 30 5 view .LVU1
	.loc 1 29 13 is_stmt 0 view .LVU2
	subq	$8, %rsp
	.cfi_def_cfa_offset 16
	.loc 1 30 5 view .LVU3
	call	omp_get_thread_num
.LVL1:
	.loc 1 30 5 view .LVU4
	movl	$.LC0, %edi
	.loc 1 29 13 view .LVU5
	addq	$8, %rsp
	.cfi_def_cfa_offset 8
	.loc 1 30 5 view .LVU6
	movl	%eax, %esi
	xorl	%eax, %eax
	jmp	printf
.LVL2:
	.cfi_endproc
.LFE17:
	.size	foo._omp_fn.3, .-foo._omp_fn.3
	.p2align 4
	.type	foo._omp_fn.2, @function
foo._omp_fn.2:
.LVL3:
.LFB16:
	.loc 1 21 13 is_stmt 1 view -0
	.cfi_startproc
	.loc 1 23 5 view .LVU8
	.loc 1 24 5 view .LVU9
	.loc 1 24 17 view .LVU10
	.loc 1 25 9 view .LVU11
	.loc 1 24 25 view .LVU12
	.loc 1 24 17 view .LVU13
	.loc 1 25 15 is_stmt 0 view .LVU14
	movl	first(%rip), %eax
	addl	$16, %eax
	.loc 1 21 60 view .LVU15
	lock addl	%eax, second(%rip)
	.loc 1 21 13 view .LVU16
	ret
	.cfi_endproc
.LFE16:
	.size	foo._omp_fn.2, .-foo._omp_fn.2
	.p2align 4
	.type	foo._omp_fn.1, @function
foo._omp_fn.1:
.LVL4:
.LFB15:
	.loc 1 15 13 is_stmt 1 view -0
	.cfi_startproc
	.loc 1 15 13 is_stmt 0 view .LVU18
	movl	(%rdi), %eax
.LVL5:
	.loc 1 17 5 is_stmt 1 view .LVU19
	.loc 1 18 5 view .LVU20
	.loc 1 17 6 is_stmt 0 view .LVU21
	addl	$1, %eax
.LVL6:
	.loc 1 15 51 view .LVU22
	lock addl	%eax, first(%rip)
	.loc 1 15 13 view .LVU23
	ret
	.cfi_endproc
.LFE15:
	.size	foo._omp_fn.1, .-foo._omp_fn.1
	.p2align 4
	.type	foo._omp_fn.0, @function
foo._omp_fn.0:
.LVL7:
.LFB14:
	.loc 1 9 13 is_stmt 1 view -0
	.cfi_startproc
	.loc 1 9 13 is_stmt 0 view .LVU25
	movl	(%rdi), %eax
.LVL8:
	.loc 1 11 5 is_stmt 1 view .LVU26
	.loc 1 12 5 view .LVU27
	.loc 1 11 6 is_stmt 0 view .LVU28
	addl	$1, %eax
.LVL9:
	.loc 1 9 51 view .LVU29
	lock addl	%eax, first(%rip)
	.loc 1 9 13 view .LVU30
	ret
	.cfi_endproc
.LFE14:
	.size	foo._omp_fn.0, .-foo._omp_fn.0
	.p2align 4
	.globl	foo
	.type	foo, @function
foo:
.LFB12:
	.loc 1 7 11 is_stmt 1 view -0
	.cfi_startproc
	.loc 1 8 5 view .LVU32
.LVL10:
	.loc 1 7 11 is_stmt 0 view .LVU33
	subq	$24, %rsp
	.cfi_def_cfa_offset 32
	xorl	%ecx, %ecx
	movl	$2, %edx
	leaq	12(%rsp), %rsi
	movl	$foo._omp_fn.0, %edi
.LBB2:
	.loc 1 9 13 view .LVU34
	movl	$1023, 12(%rsp)
	call	GOMP_parallel
.LVL11:
	leaq	12(%rsp), %rsi
	xorl	%ecx, %ecx
	movl	$1, %edx
	movl	$foo._omp_fn.1, %edi
.LBE2:
.LBB3:
	.loc 1 15 13 view .LVU35
	movl	$1023, 12(%rsp)
	call	GOMP_parallel
.LVL12:
	xorl	%ecx, %ecx
	xorl	%edx, %edx
	xorl	%esi, %esi
	movl	$foo._omp_fn.2, %edi
	call	GOMP_parallel
.LVL13:
.LBE3:
	.loc 1 28 5 is_stmt 1 view .LVU36
	movl	$6, %edi
	call	omp_set_num_threads
.LVL14:
	xorl	%ecx, %ecx
	xorl	%edx, %edx
	xorl	%esi, %esi
	movl	$foo._omp_fn.3, %edi
	call	GOMP_parallel
.LVL15:
	.loc 1 32 5 view .LVU37
	.loc 1 33 1 is_stmt 0 view .LVU38
	movl	$1023, %eax
	addq	$24, %rsp
	.cfi_def_cfa_offset 8
	ret
	.cfi_endproc
.LFE12:
	.size	foo, .-foo
	.section	.rodata.str1.8
	.align 8
.LC1:
	.string	"first = %d, second = %d, x = %d\n"
	.section	.text.startup,"ax",@progbits
	.p2align 4
	.globl	main
	.type	main, @function
main:
.LVL16:
.LFB13:
	.loc 1 35 34 is_stmt 1 view -0
	.cfi_startproc
	.loc 1 36 5 view .LVU40
	.loc 1 35 34 is_stmt 0 view .LVU41
	subq	$8, %rsp
	.cfi_def_cfa_offset 16
	.loc 1 36 5 view .LVU42
	xorl	%eax, %eax
	call	foo
.LVL17:
	.loc 1 36 5 view .LVU43
	movl	second(%rip), %edx
	movl	$.LC1, %edi
	movl	first(%rip), %esi
	movl	%eax, %ecx
	xorl	%eax, %eax
	call	printf
.LVL18:
	.loc 1 37 1 view .LVU44
	xorl	%eax, %eax
	addq	$8, %rsp
	.cfi_def_cfa_offset 8
	ret
	.cfi_endproc
.LFE13:
	.size	main, .-main
	.globl	second
	.bss
	.align 4
	.type	second, @object
	.size	second, 4
second:
	.zero	4
	.globl	first
	.align 4
	.type	first, @object
	.size	first, 4
first:
	.zero	4
	.text
.Letext0:
	.file 2 "<built-in>"
	.file 3 "/usr/include/stdio.h"
	.file 4 "/scratch/nas/1/Soft/gcc/10.2.0/lib/gcc/x86_64-linux-gnu/10.2.0/include/omp.h"
	.section	.note.GNU-stack,"",@progbits
